target datalayout = "e-m:e-p270:32:32-p271:32:32-p272:64:64-i64:64-i128:128-f80:128-n8:16:32:64-S128"
target triple = "x86_64-pc-linux-gnu"

%struct.Vector2 = type { float, float }

; Function Attrs: nounwind uwtable
define <2 x float> @GetSplinePointBasis(<2 x float> %0, <2 x float> %1, <2 x float> %2, <2 x float> %3, float noundef %4) #0 {
  %6 = alloca %struct.Vector2, align 4
  %7 = alloca %struct.Vector2, align 4
  %8 = alloca %struct.Vector2, align 4
  %9 = alloca %struct.Vector2, align 4
  %10 = alloca %struct.Vector2, align 4
  %11 = alloca float, align 4
  %12 = alloca [4 x float], align 16
  %13 = alloca [4 x float], align 16
  store <2 x float> %0, ptr %7, align 4
  store <2 x float> %1, ptr %8, align 4
  store <2 x float> %2, ptr %9, align 4
  store <2 x float> %3, ptr %10, align 4
  store float %4, ptr %11, align 4
  call void @llvm.memset.p0.i64(ptr align 4 %6, i8 0, i64 8, i1 false)
  call void @llvm.lifetime.start.p0(i64 16, ptr %12) #8
  call void @llvm.memset.p0.i64(ptr align 16 %12, i8 0, i64 16, i1 false)
  call void @llvm.lifetime.start.p0(i64 16, ptr %13) #8
  call void @llvm.memset.p0.i64(ptr align 16 %13, i8 0, i64 16, i1 false)
  %14 = getelementptr inbounds nuw %struct.Vector2, ptr %7, i32 0, i32 0
  %15 = load float, ptr %14, align 4
  %16 = fneg float %15
  %17 = getelementptr inbounds nuw %struct.Vector2, ptr %8, i32 0, i32 0
  %18 = load float, ptr %17, align 4
  %19 = call float @llvm.fmuladd.f32(float 3.000000e+00, float %18, float %16)
  %20 = getelementptr inbounds nuw %struct.Vector2, ptr %9, i32 0, i32 0
  %21 = load float, ptr %20, align 4
  %22 = call float @llvm.fmuladd.f32(float -3.000000e+00, float %21, float %19)
  %23 = getelementptr inbounds nuw %struct.Vector2, ptr %10, i32 0, i32 0
  %24 = load float, ptr %23, align 4
  %25 = fadd float %22, %24
  %26 = fdiv float %25, 6.000000e+00
  %27 = getelementptr inbounds [4 x float], ptr %12, i64 0, i64 0
  store float %26, ptr %27, align 16
  %28 = getelementptr inbounds nuw %struct.Vector2, ptr %7, i32 0, i32 0
  %29 = load float, ptr %28, align 4
  %30 = getelementptr inbounds nuw %struct.Vector2, ptr %8, i32 0, i32 0
  %31 = load float, ptr %30, align 4
  %32 = fmul float 6.000000e+00, %31
  %33 = fneg float %32
  %34 = call float @llvm.fmuladd.f32(float 3.000000e+00, float %29, float %33)
  %35 = getelementptr inbounds nuw %struct.Vector2, ptr %9, i32 0, i32 0
  %36 = load float, ptr %35, align 4
  %37 = call float @llvm.fmuladd.f32(float 3.000000e+00, float %36, float %34)
  %38 = fdiv float %37, 6.000000e+00
  %39 = getelementptr inbounds [4 x float], ptr %12, i64 0, i64 1
  store float %38, ptr %39, align 4
  %40 = getelementptr inbounds nuw %struct.Vector2, ptr %7, i32 0, i32 0
  %41 = load float, ptr %40, align 4
  %42 = getelementptr inbounds nuw %struct.Vector2, ptr %9, i32 0, i32 0
  %43 = load float, ptr %42, align 4
  %44 = fmul float 3.000000e+00, %43
  %45 = call float @llvm.fmuladd.f32(float -3.000000e+00, float %41, float %44)
  %46 = fdiv float %45, 6.000000e+00
  %47 = getelementptr inbounds [4 x float], ptr %12, i64 0, i64 2
  store float %46, ptr %47, align 8
  %48 = getelementptr inbounds nuw %struct.Vector2, ptr %7, i32 0, i32 0
  %49 = load float, ptr %48, align 4
  %50 = getelementptr inbounds nuw %struct.Vector2, ptr %8, i32 0, i32 0
  %51 = load float, ptr %50, align 4
  %52 = call float @llvm.fmuladd.f32(float 4.000000e+00, float %51, float %49)
  %53 = getelementptr inbounds nuw %struct.Vector2, ptr %9, i32 0, i32 0
  %54 = load float, ptr %53, align 4
  %55 = fadd float %52, %54
  %56 = fdiv float %55, 6.000000e+00
  %57 = getelementptr inbounds [4 x float], ptr %12, i64 0, i64 3
  store float %56, ptr %57, align 4
  %58 = getelementptr inbounds nuw %struct.Vector2, ptr %7, i32 0, i32 1
  %59 = load float, ptr %58, align 4
  %60 = fneg float %59
  %61 = getelementptr inbounds nuw %struct.Vector2, ptr %8, i32 0, i32 1
  %62 = load float, ptr %61, align 4
  %63 = call float @llvm.fmuladd.f32(float 3.000000e+00, float %62, float %60)
  %64 = getelementptr inbounds nuw %struct.Vector2, ptr %9, i32 0, i32 1
  %65 = load float, ptr %64, align 4
  %66 = call float @llvm.fmuladd.f32(float -3.000000e+00, float %65, float %63)
  %67 = getelementptr inbounds nuw %struct.Vector2, ptr %10, i32 0, i32 1
  %68 = load float, ptr %67, align 4
  %69 = fadd float %66, %68
  %70 = fdiv float %69, 6.000000e+00
  %71 = getelementptr inbounds [4 x float], ptr %13, i64 0, i64 0
  store float %70, ptr %71, align 16
  %72 = getelementptr inbounds nuw %struct.Vector2, ptr %7, i32 0, i32 1
  %73 = load float, ptr %72, align 4
  %74 = getelementptr inbounds nuw %struct.Vector2, ptr %8, i32 0, i32 1
  %75 = load float, ptr %74, align 4
  %76 = fmul float 6.000000e+00, %75
  %77 = fneg float %76
  %78 = call float @llvm.fmuladd.f32(float 3.000000e+00, float %73, float %77)
  %79 = getelementptr inbounds nuw %struct.Vector2, ptr %9, i32 0, i32 1
  %80 = load float, ptr %79, align 4
  %81 = call float @llvm.fmuladd.f32(float 3.000000e+00, float %80, float %78)
  %82 = fdiv float %81, 6.000000e+00
  %83 = getelementptr inbounds [4 x float], ptr %13, i64 0, i64 1
  store float %82, ptr %83, align 4
  %84 = getelementptr inbounds nuw %struct.Vector2, ptr %7, i32 0, i32 1
  %85 = load float, ptr %84, align 4
  %86 = getelementptr inbounds nuw %struct.Vector2, ptr %9, i32 0, i32 1
  %87 = load float, ptr %86, align 4
  %88 = fmul float 3.000000e+00, %87
  %89 = call float @llvm.fmuladd.f32(float -3.000000e+00, float %85, float %88)
  %90 = fdiv float %89, 6.000000e+00
  %91 = getelementptr inbounds [4 x float], ptr %13, i64 0, i64 2
  store float %90, ptr %91, align 8
  %92 = getelementptr inbounds nuw %struct.Vector2, ptr %7, i32 0, i32 1
  %93 = load float, ptr %92, align 4
  %94 = getelementptr inbounds nuw %struct.Vector2, ptr %8, i32 0, i32 1
  %95 = load float, ptr %94, align 4
  %96 = call float @llvm.fmuladd.f32(float 4.000000e+00, float %95, float %93)
  %97 = getelementptr inbounds nuw %struct.Vector2, ptr %9, i32 0, i32 1
  %98 = load float, ptr %97, align 4
  %99 = fadd float %96, %98
  %100 = fdiv float %99, 6.000000e+00
  %101 = getelementptr inbounds [4 x float], ptr %13, i64 0, i64 3
  store float %100, ptr %101, align 4
  %102 = getelementptr inbounds [4 x float], ptr %12, i64 0, i64 3
  %103 = load float, ptr %102, align 4
  %104 = load float, ptr %11, align 4
  %105 = getelementptr inbounds [4 x float], ptr %12, i64 0, i64 2
  %106 = load float, ptr %105, align 8
  %107 = load float, ptr %11, align 4
  %108 = getelementptr inbounds [4 x float], ptr %12, i64 0, i64 1
  %109 = load float, ptr %108, align 4
  %110 = load float, ptr %11, align 4
  %111 = getelementptr inbounds [4 x float], ptr %12, i64 0, i64 0
  %112 = load float, ptr %111, align 16
  %113 = call float @llvm.fmuladd.f32(float %110, float %112, float %109)
  %114 = call float @llvm.fmuladd.f32(float %107, float %113, float %106)
  %115 = call float @llvm.fmuladd.f32(float %104, float %114, float %103)
  %116 = getelementptr inbounds nuw %struct.Vector2, ptr %6, i32 0, i32 0
  store float %115, ptr %116, align 4
  %117 = getelementptr inbounds [4 x float], ptr %13, i64 0, i64 3
  %118 = load float, ptr %117, align 4
  %119 = load float, ptr %11, align 4
  %120 = getelementptr inbounds [4 x float], ptr %13, i64 0, i64 2
  %121 = load float, ptr %120, align 8
  %122 = load float, ptr %11, align 4
  %123 = getelementptr inbounds [4 x float], ptr %13, i64 0, i64 1
  %124 = load float, ptr %123, align 4
  %125 = load float, ptr %11, align 4
  %126 = getelementptr inbounds [4 x float], ptr %13, i64 0, i64 0
  %127 = load float, ptr %126, align 16
  %128 = call float @llvm.fmuladd.f32(float %125, float %127, float %124)
  %129 = call float @llvm.fmuladd.f32(float %122, float %128, float %121)
  %130 = call float @llvm.fmuladd.f32(float %119, float %129, float %118)
  %131 = getelementptr inbounds nuw %struct.Vector2, ptr %6, i32 0, i32 1
  store float %130, ptr %131, align 4
  call void @llvm.lifetime.end.p0(i64 16, ptr %13) #8
  call void @llvm.lifetime.end.p0(i64 16, ptr %12) #8
  %132 = load <2 x float>, ptr %6, align 4
  ret <2 x float> %132
}