; Function Attrs: mustprogress nofree norecurse nosync nounwind willreturn memory(none) uwtable
define <2 x float> @GetSplinePointBasis(<2 x float> %0, <2 x float> %1, <2 x float> %2, <2 x float> %3, float noundef %4) local_unnamed_addr #11 {
  %.sroa.033.0.vec.extract = extractelement <2 x float> %0, i64 0
  %6 = fneg float %.sroa.033.0.vec.extract
  %.sroa.024.0.vec.extract = extractelement <2 x float> %1, i64 0
  %7 = tail call float @llvm.fmuladd.f32(float %.sroa.024.0.vec.extract, float 3.000000e+00, float %6)
  %.sroa.011.0.vec.extract = extractelement <2 x float> %2, i64 0
  %8 = tail call float @llvm.fmuladd.f32(float %.sroa.011.0.vec.extract, float -3.000000e+00, float %7)
  %.sroa.010.0.vec.extract = extractelement <2 x float> %3, i64 0
  %9 = fadd float %8, %.sroa.010.0.vec.extract
  %10 = fdiv float %9, 6.000000e+00
  %11 = fmul float %.sroa.024.0.vec.extract, -6.000000e+00
  %12 = tail call float @llvm.fmuladd.f32(float %.sroa.033.0.vec.extract, float 3.000000e+00, float %11)
  %13 = tail call float @llvm.fmuladd.f32(float %.sroa.011.0.vec.extract, float 3.000000e+00, float %12)
  %14 = fdiv float %13, 6.000000e+00
  %15 = fmul float %.sroa.011.0.vec.extract, 3.000000e+00
  %16 = tail call float @llvm.fmuladd.f32(float %.sroa.033.0.vec.extract, float -3.000000e+00, float %15)
  %17 = fdiv float %16, 6.000000e+00
  %18 = tail call float @llvm.fmuladd.f32(float %.sroa.024.0.vec.extract, float 4.000000e+00, float %.sroa.033.0.vec.extract)
  %19 = fadd float %18, %.sroa.011.0.vec.extract
  %20 = fdiv float %19, 6.000000e+00
  %.sroa.033.4.vec.extract = extractelement <2 x float> %0, i64 1
  %21 = fneg float %.sroa.033.4.vec.extract
  %.sroa.024.4.vec.extract = extractelement <2 x float> %1, i64 1
  %22 = tail call float @llvm.fmuladd.f32(float %.sroa.024.4.vec.extract, float 3.000000e+00, float %21)
  %.sroa.011.4.vec.extract = extractelement <2 x float> %2, i64 1
  %23 = tail call float @llvm.fmuladd.f32(float %.sroa.011.4.vec.extract, float -3.000000e+00, float %22)
  %.sroa.010.4.vec.extract = extractelement <2 x float> %3, i64 1
  %24 = fadd float %23, %.sroa.010.4.vec.extract
  %25 = fdiv float %24, 6.000000e+00
  %26 = fmul float %.sroa.024.4.vec.extract, -6.000000e+00
  %27 = tail call float @llvm.fmuladd.f32(float %.sroa.033.4.vec.extract, float 3.000000e+00, float %26)
  %28 = tail call float @llvm.fmuladd.f32(float %.sroa.011.4.vec.extract, float 3.000000e+00, float %27)
  %29 = fdiv float %28, 6.000000e+00
  %30 = fmul float %.sroa.011.4.vec.extract, 3.000000e+00
  %31 = tail call float @llvm.fmuladd.f32(float %.sroa.033.4.vec.extract, float -3.000000e+00, float %30)
  %32 = fdiv float %31, 6.000000e+00
  %33 = tail call float @llvm.fmuladd.f32(float %.sroa.024.4.vec.extract, float 4.000000e+00, float %.sroa.033.4.vec.extract)
  %34 = fadd float %33, %.sroa.011.4.vec.extract
  %35 = fdiv float %34, 6.000000e+00
  %36 = tail call float @llvm.fmuladd.f32(float %4, float %10, float %14)
  %37 = tail call float @llvm.fmuladd.f32(float %4, float %36, float %17)
  %38 = tail call float @llvm.fmuladd.f32(float %4, float %37, float %20)
  %.sroa.046.0.vec.insert = insertelement <2 x float> poison, float %38, i64 0
  %39 = tail call float @llvm.fmuladd.f32(float %4, float %25, float %29)
  %40 = tail call float @llvm.fmuladd.f32(float %4, float %39, float %32)
  %41 = tail call float @llvm.fmuladd.f32(float %4, float %40, float %35)
  %.sroa.046.4.vec.insert = insertelement <2 x float> %.sroa.046.0.vec.insert, float %41, i64 1
  ret <2 x float> %.sroa.046.4.vec.insert
}